; Function Attrs: mustprogress nounwind uwtable
define internal void @_ZN12_GLOBAL__N_135grpc_alts_server_security_connectorD0Ev(ptr noundef nonnull align 8 dereferenceable(40) %this) unnamed_addr #6 align 2 personality ptr @__gxx_personality_v0 {
entry:
  store ptr getelementptr inbounds ({ [9 x ptr] }, ptr @_ZTV30grpc_server_security_connector, i64 0, i32 0, i64 2), ptr %this, align 8
  %server_creds_.i.i = getelementptr inbounds i8, ptr %this, i64 32
  %0 = load ptr, ptr %server_creds_.i.i, align 8
  %cmp.not.i.i.i = icmp eq ptr %0, null
  br i1 %cmp.not.i.i.i, label %_ZN12_GLOBAL__N_135grpc_alts_server_security_connectorD2Ev.exit, label %if.then.i.i.i

if.then.i.i.i:                                    ; preds = %entry
  %refs_.i.i.i.i = getelementptr inbounds i8, ptr %0, i64 8
  %1 = atomicrmw sub ptr %refs_.i.i.i.i, i64 1 acq_rel, align 8
  %cmp.i.i.i.i.i = icmp eq i64 %1, 1
  br i1 %cmp.i.i.i.i.i, label %if.then.i.i.i.i, label %_ZN12_GLOBAL__N_135grpc_alts_server_security_connectorD2Ev.exit

if.then.i.i.i.i:                                  ; preds = %if.then.i.i.i
  %vtable.i.i.i.i.i = load ptr, ptr %0, align 8
  %vfn.i.i.i.i.i = getelementptr inbounds i8, ptr %vtable.i.i.i.i.i, i64 8
  %2 = load ptr, ptr %vfn.i.i.i.i.i, align 8
  tail call void %2(ptr noundef nonnull align 8 dereferenceable(40) %0) #21
  br label %_ZN12_GLOBAL__N_135grpc_alts_server_security_connectorD2Ev.exit

_ZN12_GLOBAL__N_135grpc_alts_server_security_connectorD2Ev.exit: ; preds = %entry, %if.then.i.i.i, %if.then.i.i.i.i
  tail call void @_ZdlPv(ptr noundef nonnull %this) #22
  ret void
}